target datalayout = "e-m:e-p270:32:32-p271:32:32-p272:64:64-i64:64-i128:128-f80:128-n8:16:32:64-S128"
target triple = "x86_64-pc-linux-gnu"

%struct.VariableStatData = type { ptr, ptr, ptr, ptr, i32, i32, i32, i8, i8 }
%struct.FunctionCallInfoBaseData = type { ptr, ptr, ptr, i32, i8, i16, [0 x %struct.NullableDatum] }
%struct.NullableDatum = type { i64, i8 }
%struct.Node = type { i32 }
%struct.Const = type { %struct.Expr, i32, i32, i32, i32, i64, i8, i8, i32 }
%struct.Expr = type { i32 }

; Function Attrs: inlinehint nounwind uwtable
define internal i32 @DatumGetInt32(i64 noundef %0) #1 {
  %2 = alloca i64, align 8
  store i64 %0, ptr %2, align 8
  %3 = load i64, ptr %2, align 8
  %4 = trunc i64 %3 to i32
  ret i32 %4
}

; Function Attrs: inlinehint nounwind uwtable
define internal i32 @DatumGetObjectId(i64 noundef %0) #1 {
  %2 = alloca i64, align 8
  store i64 %0, ptr %2, align 8
  %3 = load i64, ptr %2, align 8
  %4 = trunc i64 %3 to i32
  ret i32 %4
}

; Function Attrs: inlinehint nounwind uwtable
define internal ptr @DatumGetPointer(i64 noundef %0) #1 {
  %2 = alloca i64, align 8
  store i64 %0, ptr %2, align 8
  %3 = load i64, ptr %2, align 8
  %4 = inttoptr i64 %3 to ptr
  ret ptr %4
}

; Function Attrs: nounwind uwtable
define internal double @eqsel_internal(ptr noundef %0, i1 noundef zeroext %1) #0 {
  %3 = alloca double, align 8
  %4 = alloca ptr, align 8
  %5 = alloca i8, align 1
  %6 = alloca ptr, align 8
  %7 = alloca i32, align 4
  %8 = alloca ptr, align 8
  %9 = alloca i32, align 4
  %10 = alloca i32, align 4
  %11 = alloca %struct.VariableStatData, align 8
  %12 = alloca ptr, align 8
  %13 = alloca i8, align 1
  %14 = alloca double, align 8
  %15 = alloca i32, align 4
  store ptr %0, ptr %4, align 8
  %16 = zext i1 %1 to i8
  store i8 %16, ptr %5, align 1
  call void @llvm.lifetime.start.p0(i64 8, ptr %6) #10
  %17 = load ptr, ptr %4, align 8
  %18 = getelementptr inbounds nuw %struct.FunctionCallInfoBaseData, ptr %17, i32 0, i32 6
  %19 = getelementptr inbounds [0 x %struct.NullableDatum], ptr %18, i64 0, i64 0
  %20 = getelementptr inbounds nuw %struct.NullableDatum, ptr %19, i32 0, i32 0
  %21 = load i64, ptr %20, align 8
  %22 = call ptr @DatumGetPointer(i64 noundef %21)
  store ptr %22, ptr %6, align 8
  call void @llvm.lifetime.start.p0(i64 4, ptr %7) #10
  %23 = load ptr, ptr %4, align 8
  %24 = getelementptr inbounds nuw %struct.FunctionCallInfoBaseData, ptr %23, i32 0, i32 6
  %25 = getelementptr inbounds [0 x %struct.NullableDatum], ptr %24, i64 0, i64 1
  %26 = getelementptr inbounds nuw %struct.NullableDatum, ptr %25, i32 0, i32 0
  %27 = load i64, ptr %26, align 8
  %28 = call i32 @DatumGetObjectId(i64 noundef %27)
  store i32 %28, ptr %7, align 4
  call void @llvm.lifetime.start.p0(i64 8, ptr %8) #10
  %29 = load ptr, ptr %4, align 8
  %30 = getelementptr inbounds nuw %struct.FunctionCallInfoBaseData, ptr %29, i32 0, i32 6
  %31 = getelementptr inbounds [0 x %struct.NullableDatum], ptr %30, i64 0, i64 2
  %32 = getelementptr inbounds nuw %struct.NullableDatum, ptr %31, i32 0, i32 0
  %33 = load i64, ptr %32, align 8
  %34 = call ptr @DatumGetPointer(i64 noundef %33)
  store ptr %34, ptr %8, align 8
  call void @llvm.lifetime.start.p0(i64 4, ptr %9) #10
  %35 = load ptr, ptr %4, align 8
  %36 = getelementptr inbounds nuw %struct.FunctionCallInfoBaseData, ptr %35, i32 0, i32 6
  %37 = getelementptr inbounds [0 x %struct.NullableDatum], ptr %36, i64 0, i64 3
  %38 = getelementptr inbounds nuw %struct.NullableDatum, ptr %37, i32 0, i32 0
  %39 = load i64, ptr %38, align 8
  %40 = call i32 @DatumGetInt32(i64 noundef %39)
  store i32 %40, ptr %9, align 4
  call void @llvm.lifetime.start.p0(i64 4, ptr %10) #10
  %41 = load ptr, ptr %4, align 8
  %42 = getelementptr inbounds nuw %struct.FunctionCallInfoBaseData, ptr %41, i32 0, i32 3
  %43 = load i32, ptr %42, align 8
  store i32 %43, ptr %10, align 4
  call void @llvm.lifetime.start.p0(i64 48, ptr %11) #10
  call void @llvm.lifetime.start.p0(i64 8, ptr %12) #10
  call void @llvm.lifetime.start.p0(i64 1, ptr %13) #10
  call void @llvm.lifetime.start.p0(i64 8, ptr %14) #10
  %44 = load i8, ptr %5, align 1, !range !4, !noundef !5
  %45 = trunc i8 %44 to i1
  br i1 %45, label %46, label %53

46:                                               ; preds = %2
  %47 = load i32, ptr %7, align 4
  %48 = call i32 @get_negator(i32 noundef %47)
  store i32 %48, ptr %7, align 4
  %49 = load i32, ptr %7, align 4
  %50 = icmp ne i32 %49, 0
  br i1 %50, label %52, label %51

51:                                               ; preds = %46
  store double 0x3FEFD70A3D70A3D7, ptr %3, align 8
  store i32 1, ptr %15, align 4
  br label %105

52:                                               ; preds = %46
  br label %53

53:                                               ; preds = %52, %2
  %54 = load ptr, ptr %6, align 8
  %55 = load ptr, ptr %8, align 8
  %56 = load i32, ptr %9, align 4
  %57 = call zeroext i1 @get_restriction_variable(ptr noundef %54, ptr noundef %55, i32 noundef %56, ptr noundef %11, ptr noundef %12, ptr noundef %13)
  br i1 %57, label %62, label %58

58:                                               ; preds = %53
  %59 = load i8, ptr %5, align 1, !range !4, !noundef !5
  %60 = trunc i8 %59 to i1
  %61 = select i1 %60, double 0x3FEFD70A3D70A3D7, double 5.000000e-03
  store double %61, ptr %3, align 8
  store i32 1, ptr %15, align 4
  br label %105

62:                                               ; preds = %53
  %63 = load ptr, ptr %12, align 8
  %64 = getelementptr inbounds nuw %struct.Node, ptr %63, i32 0, i32 0
  %65 = load i32, ptr %64, align 4
  %66 = icmp eq i32 %65, 7
  br i1 %66, label %67, label %82

67:                                               ; preds = %62
  %68 = load i32, ptr %7, align 4
  %69 = load i32, ptr %10, align 4
  %70 = load ptr, ptr %12, align 8
  %71 = getelementptr inbounds nuw %struct.Const, ptr %70, i32 0, i32 5
  %72 = load i64, ptr %71, align 8
  %73 = load ptr, ptr %12, align 8
  %74 = getelementptr inbounds nuw %struct.Const, ptr %73, i32 0, i32 6
  %75 = load i8, ptr %74, align 8, !range !4, !noundef !5
  %76 = trunc i8 %75 to i1
  %77 = load i8, ptr %13, align 1, !range !4, !noundef !5
  %78 = trunc i8 %77 to i1
  %79 = load i8, ptr %5, align 1, !range !4, !noundef !5
  %80 = trunc i8 %79 to i1
  %81 = call double @var_eq_const(ptr noundef %11, i32 noundef %68, i32 noundef %69, i64 noundef %72, i1 noundef zeroext %76, i1 noundef zeroext %78, i1 noundef zeroext %80)
  store double %81, ptr %14, align 8
  br label %91

82:                                               ; preds = %62
  %83 = load i32, ptr %7, align 4
  %84 = load i32, ptr %10, align 4
  %85 = load ptr, ptr %12, align 8
  %86 = load i8, ptr %13, align 1, !range !4, !noundef !5
  %87 = trunc i8 %86 to i1
  %88 = load i8, ptr %5, align 1, !range !4, !noundef !5
  %89 = trunc i8 %88 to i1
  %90 = call double @var_eq_non_const(ptr noundef %11, i32 noundef %83, i32 noundef %84, ptr noundef %85, i1 noundef zeroext %87, i1 noundef zeroext %89)
  store double %90, ptr %14, align 8
  br label %91

91:                                               ; preds = %82, %67
  br label %92

92:                                               ; preds = %91
  %93 = getelementptr inbounds nuw %struct.VariableStatData, ptr %11, i32 0, i32 2
  %94 = load ptr, ptr %93, align 8
  %95 = icmp ne ptr %94, null
  br i1 %95, label %96, label %101

96:                                               ; preds = %92
  %97 = getelementptr inbounds nuw %struct.VariableStatData, ptr %11, i32 0, i32 3
  %98 = load ptr, ptr %97, align 8
  %99 = getelementptr inbounds nuw %struct.VariableStatData, ptr %11, i32 0, i32 2
  %100 = load ptr, ptr %99, align 8
  call void %98(ptr noundef %100)
  br label %101

101:                                              ; preds = %96, %92
  br label %102

102:                                              ; preds = %101
  br label %103

103:                                              ; preds = %102
  %104 = load double, ptr %14, align 8
  store double %104, ptr %3, align 8
  store i32 1, ptr %15, align 4
  br label %105

105:                                              ; preds = %103, %58, %51
  call void @llvm.lifetime.end.p0(i64 8, ptr %14) #10
  call void @llvm.lifetime.end.p0(i64 1, ptr %13) #10
  call void @llvm.lifetime.end.p0(i64 8, ptr %12) #10
  call void @llvm.lifetime.end.p0(i64 48, ptr %11) #10
  call void @llvm.lifetime.end.p0(i64 4, ptr %10) #10
  call void @llvm.lifetime.end.p0(i64 4, ptr %9) #10
  call void @llvm.lifetime.end.p0(i64 8, ptr %8) #10
  call void @llvm.lifetime.end.p0(i64 4, ptr %7) #10
  call void @llvm.lifetime.end.p0(i64 8, ptr %6) #10
  %106 = load double, ptr %3, align 8
  ret double %106
}