; Function Attrs: nounwind uwtable
define internal fastcc double @eqsel_internal(ptr noundef readonly captures(none) %0, i1 noundef zeroext %1) unnamed_addr #0 {
  %3 = alloca %struct.VariableStatData, align 8
  %4 = alloca ptr, align 8
  %5 = alloca i8, align 1
  %6 = getelementptr inbounds nuw i8, ptr %0, i64 32
  %7 = load i64, ptr %6, align 8
  %8 = inttoptr i64 %7 to ptr
  %9 = getelementptr inbounds nuw i8, ptr %0, i64 48
  %10 = load i64, ptr %9, align 8
  %11 = trunc i64 %10 to i32
  %12 = getelementptr inbounds nuw i8, ptr %0, i64 64
  %13 = load i64, ptr %12, align 8
  %14 = inttoptr i64 %13 to ptr
  %15 = getelementptr inbounds nuw i8, ptr %0, i64 80
  %16 = load i64, ptr %15, align 8
  %17 = trunc i64 %16 to i32
  %18 = getelementptr inbounds nuw i8, ptr %0, i64 24
  %19 = load i32, ptr %18, align 8
  call void @llvm.lifetime.start.p0(i64 48, ptr nonnull %3) #12
  call void @llvm.lifetime.start.p0(i64 8, ptr nonnull %4) #12
  call void @llvm.lifetime.start.p0(i64 1, ptr nonnull %5) #12
  br i1 %1, label %20, label %22

20:                                               ; preds = %2
  %21 = tail call i32 @get_negator(i32 noundef %11) #12
  %.not = icmp eq i32 %21, 0
  br i1 %.not, label %47, label %22

22:                                               ; preds = %20, %2
  %.020 = phi i32 [ %21, %20 ], [ %11, %2 ]
  %23 = call zeroext i1 @get_restriction_variable(ptr noundef %8, ptr noundef %14, i32 noundef %17, ptr noundef nonnull %3, ptr noundef nonnull %4, ptr noundef nonnull %5)
  br i1 %23, label %26, label %24

24:                                               ; preds = %22
  %25 = select i1 %1, double 0x3FEFD70A3D70A3D7, double 5.000000e-03
  br label %47

26:                                               ; preds = %22
  %27 = load ptr, ptr %4, align 8
  %28 = load i32, ptr %27, align 4
  %29 = icmp eq i32 %28, 7
  br i1 %29, label %30, label %39

30:                                               ; preds = %26
  %31 = getelementptr inbounds nuw i8, ptr %27, i64 24
  %32 = load i64, ptr %31, align 8
  %33 = getelementptr inbounds nuw i8, ptr %27, i64 32
  %34 = load i8, ptr %33, align 8, !range !4, !noundef !5
  %35 = trunc nuw i8 %34 to i1
  %36 = load i8, ptr %5, align 1, !range !4, !noundef !5
  %37 = trunc nuw i8 %36 to i1
  %38 = call double @var_eq_const(ptr noundef nonnull %3, i32 noundef %.020, i32 noundef %19, i64 noundef %32, i1 noundef zeroext %35, i1 noundef zeroext %37, i1 noundef zeroext %1)
  br label %41

39:                                               ; preds = %26
  %40 = call double @var_eq_non_const(ptr noundef nonnull %3, i32 poison, i32 poison, ptr nonnull poison, i1 zeroext poison, i1 noundef zeroext %1)
  br label %41

41:                                               ; preds = %30, %39
  %.0 = phi double [ %38, %30 ], [ %40, %39 ]
  %42 = getelementptr inbounds nuw i8, ptr %3, i64 16
  %43 = load ptr, ptr %42, align 8
  %.not23 = icmp eq ptr %43, null
  br i1 %.not23, label %47, label %44

44:                                               ; preds = %41
  %45 = getelementptr inbounds nuw i8, ptr %3, i64 24
  %46 = load ptr, ptr %45, align 8
  call void %46(ptr noundef nonnull %43) #12
  br label %47

47:                                               ; preds = %41, %44, %20, %24
  %.019 = phi double [ %25, %24 ], [ 0x3FEFD70A3D70A3D7, %20 ], [ %.0, %44 ], [ %.0, %41 ]
  call void @llvm.lifetime.end.p0(i64 1, ptr nonnull %5) #12
  call void @llvm.lifetime.end.p0(i64 8, ptr nonnull %4) #12
  call void @llvm.lifetime.end.p0(i64 48, ptr nonnull %3) #12
  ret double %.019
}